target datalayout = "e-m:e-p270:32:32-p271:32:32-p272:64:64-i64:64-i128:128-f80:128-n8:16:32:64-S128"
target triple = "x86_64-pc-linux-gnu"

%class.QString = type { %struct.QArrayDataPointer }
%struct.QArrayDataPointer = type { ptr, ptr, i64 }
%class.InterfaceToolbarLineEdit = type <{ %class.QLineEdit, ptr, %class.QRegularExpression, i8, i8, [6 x i8] }>
%class.QLineEdit = type { %class.QWidget }
%class.QWidget = type { %class.QObject, %class.QPaintDevice.base, ptr }
%class.QObject = type { ptr, %class.QScopedPointer }
%class.QScopedPointer = type { ptr }
%class.QPaintDevice.base = type <{ ptr, i16 }>
%class.QRegularExpression = type { %class.QExplicitlySharedDataPointer }
%class.QExplicitlySharedDataPointer = type { ptr }
%class.QRegularExpressionMatch = type { %class.QExplicitlySharedDataPointer.0 }
%class.QExplicitlySharedDataPointer.0 = type { ptr }
%class.QFlags.1 = type { i32 }
%struct.QArrayData = type { %class.QBasicAtomicInteger, %class.QFlags.6, i64 }
%class.QBasicAtomicInteger = type { %"struct.std::atomic" }
%"struct.std::atomic" = type { %"struct.std::__atomic_base" }
%"struct.std::__atomic_base" = type { i32 }
%class.QFlags.6 = type { i32 }

; Function Attrs: mustprogress nounwind uwtable
define linkonce_odr noundef i32 @_ZNSt13__atomic_baseIiEmmEv(ptr noundef nonnull align 4 dereferenceable(4) %0) #2 comdat align 2 {
  %2 = alloca ptr, align 8
  %3 = alloca i32, align 4
  %4 = alloca i32, align 4
  store ptr %0, ptr %2, align 8
  %5 = load ptr, ptr %2, align 8
  %6 = getelementptr inbounds %"struct.std::__atomic_base", ptr %5, i32 0, i32 0
  store i32 1, ptr %3, align 4
  %7 = load i32, ptr %3, align 4
  %8 = atomicrmw sub ptr %6, i32 %7 seq_cst, align 4
  %9 = sub i32 %8, %7
  store i32 %9, ptr %4, align 4
  %10 = load i32, ptr %4, align 4
  ret i32 %10
}

; Function Attrs: mustprogress nounwind uwtable
define linkonce_odr noundef zeroext i1 @_ZN10QAtomicOpsIiE5derefIiEEbRSt6atomicIT_E(ptr noundef nonnull align 4 dereferenceable(4) %0) #2 comdat align 2 {
  %2 = alloca ptr, align 8
  store ptr %0, ptr %2, align 8
  %3 = load ptr, ptr %2, align 8
  %4 = call noundef i32 @_ZNSt13__atomic_baseIiEmmEv(ptr noundef nonnull align 4 dereferenceable(4) %3) #8
  %5 = icmp ne i32 %4, 0
  ret i1 %5
}

; Function Attrs: mustprogress nounwind uwtable
define linkonce_odr noundef zeroext i1 @_ZN19QBasicAtomicIntegerIiE5derefEv(ptr noundef nonnull align 4 dereferenceable(4) %0) #2 comdat align 2 {
  %2 = alloca ptr, align 8
  store ptr %0, ptr %2, align 8
  %3 = load ptr, ptr %2, align 8
  %4 = getelementptr inbounds %class.QBasicAtomicInteger, ptr %3, i32 0, i32 0
  %5 = call noundef zeroext i1 @_ZN10QAtomicOpsIiE5derefIiEEbRSt6atomicIT_E(ptr noundef nonnull align 4 dereferenceable(4) %4) #8
  ret i1 %5
}

; Function Attrs: mustprogress nounwind uwtable
define linkonce_odr noundef zeroext i1 @_ZN10QArrayData5derefEv(ptr noundef nonnull align 8 dereferenceable(16) %0) #2 comdat align 2 {
  %2 = alloca ptr, align 8
  store ptr %0, ptr %2, align 8
  %3 = load ptr, ptr %2, align 8
  %4 = getelementptr inbounds %struct.QArrayData, ptr %3, i32 0, i32 0
  %5 = call noundef zeroext i1 @_ZN19QBasicAtomicIntegerIiE5derefEv(ptr noundef nonnull align 4 dereferenceable(4) %4) #8
  ret i1 %5
}

; Function Attrs: mustprogress nounwind uwtable
define linkonce_odr void @_ZN15QTypedArrayDataIDsE10deallocateEP10QArrayData(ptr noundef %0) #2 comdat align 2 {
  %2 = alloca ptr, align 8
  store ptr %0, ptr %2, align 8
  %3 = load ptr, ptr %2, align 8
  call void @_ZN10QArrayData10deallocateEPS_xx(ptr noundef %3, i64 noundef 2, i64 noundef 8) #8
  ret void
}

; Function Attrs: mustprogress nounwind uwtable
define linkonce_odr void @_ZN9QtPrivate12QPodArrayOpsIDsE10destroyAllEv(ptr noundef nonnull align 8 dereferenceable(24) %0) #2 comdat align 2 {
  %2 = alloca ptr, align 8
  store ptr %0, ptr %2, align 8
  ret void
}

; Function Attrs: mustprogress nounwind uwtable
define linkonce_odr noundef ptr @_ZN17QArrayDataPointerIDsEptEv(ptr noundef nonnull align 8 dereferenceable(24) %0) #2 comdat align 2 {
  %2 = alloca ptr, align 8
  store ptr %0, ptr %2, align 8
  %3 = load ptr, ptr %2, align 8
  ret ptr %3
}

; Function Attrs: mustprogress nounwind uwtable
define linkonce_odr noundef zeroext i1 @_ZN17QArrayDataPointerIDsE5derefEv(ptr noundef nonnull align 8 dereferenceable(24) %0) #2 comdat align 2 {
  %2 = alloca ptr, align 8
  store ptr %0, ptr %2, align 8
  %3 = load ptr, ptr %2, align 8
  %4 = getelementptr inbounds %struct.QArrayDataPointer, ptr %3, i32 0, i32 0
  %5 = load ptr, ptr %4, align 8
  %6 = icmp ne ptr %5, null
  br i1 %6, label %7, label %11

7:                                                ; preds = %1
  %8 = getelementptr inbounds %struct.QArrayDataPointer, ptr %3, i32 0, i32 0
  %9 = load ptr, ptr %8, align 8
  %10 = call noundef zeroext i1 @_ZN10QArrayData5derefEv(ptr noundef nonnull align 8 dereferenceable(16) %9) #8
  br label %11

11:                                               ; preds = %7, %1
  %12 = phi i1 [ true, %1 ], [ %10, %7 ]
  ret i1 %12
}

; Function Attrs: mustprogress nounwind uwtable
define linkonce_odr void @_ZN17QArrayDataPointerIDsED2Ev(ptr noundef nonnull align 8 dereferenceable(24) %0) unnamed_addr #2 comdat align 2 {
  %2 = alloca ptr, align 8
  store ptr %0, ptr %2, align 8
  %3 = load ptr, ptr %2, align 8
  %4 = call noundef zeroext i1 @_ZN17QArrayDataPointerIDsE5derefEv(ptr noundef nonnull align 8 dereferenceable(24) %3) #8
  br i1 %4, label %9, label %5

5:                                                ; preds = %1
  %6 = call noundef ptr @_ZN17QArrayDataPointerIDsEptEv(ptr noundef nonnull align 8 dereferenceable(24) %3) #8
  call void @_ZN9QtPrivate12QPodArrayOpsIDsE10destroyAllEv(ptr noundef nonnull align 8 dereferenceable(24) %6) #8
  %7 = getelementptr inbounds %struct.QArrayDataPointer, ptr %3, i32 0, i32 0
  %8 = load ptr, ptr %7, align 8
  call void @_ZN15QTypedArrayDataIDsE10deallocateEP10QArrayData(ptr noundef %8) #8
  br label %9

9:                                                ; preds = %5, %1
  ret void
}

; Function Attrs: mustprogress nounwind uwtable
define linkonce_odr void @_ZN6QFlagsIN18QRegularExpression11MatchOptionEEC2ES1_(ptr noundef nonnull align 4 dereferenceable(4) %0, i32 noundef %1) unnamed_addr #2 comdat align 2 {
  %3 = alloca ptr, align 8
  %4 = alloca i32, align 4
  store ptr %0, ptr %3, align 8
  store i32 %1, ptr %4, align 4
  %5 = load ptr, ptr %3, align 8
  %6 = getelementptr inbounds %class.QFlags.1, ptr %5, i32 0, i32 0
  %7 = load i32, ptr %4, align 4
  store i32 %7, ptr %6, align 4
  ret void
}

; Function Attrs: mustprogress nounwind uwtable
define linkonce_odr noundef zeroext i1 @_ZNK7QString7isEmptyEv(ptr noundef nonnull align 8 dereferenceable(24) %0) #2 comdat align 2 {
  %2 = alloca ptr, align 8
  store ptr %0, ptr %2, align 8
  %3 = load ptr, ptr %2, align 8
  %4 = getelementptr inbounds %class.QString, ptr %3, i32 0, i32 0
  %5 = getelementptr inbounds %struct.QArrayDataPointer, ptr %4, i32 0, i32 2
  %6 = load i64, ptr %5, align 8
  %7 = icmp eq i64 %6, 0
  ret i1 %7
}

; Function Attrs: mustprogress nounwind uwtable
define linkonce_odr void @_ZN7QStringD2Ev(ptr noundef nonnull align 8 dereferenceable(24) %0) unnamed_addr #2 comdat align 2 {
  %2 = alloca ptr, align 8
  store ptr %0, ptr %2, align 8
  %3 = load ptr, ptr %2, align 8
  %4 = getelementptr inbounds %class.QString, ptr %3, i32 0, i32 0
  call void @_ZN17QArrayDataPointerIDsED2Ev(ptr noundef nonnull align 8 dereferenceable(24) %4) #8
  ret void
}

; Function Attrs: mustprogress nounwind uwtable
define linkonce_odr noundef i64 @_ZNK7QString6lengthEv(ptr noundef nonnull align 8 dereferenceable(24) %0) #2 comdat align 2 {
  %2 = alloca ptr, align 8
  store ptr %0, ptr %2, align 8
  %3 = load ptr, ptr %2, align 8
  %4 = getelementptr inbounds %class.QString, ptr %3, i32 0, i32 0
  %5 = getelementptr inbounds %struct.QArrayDataPointer, ptr %4, i32 0, i32 2
  %6 = load i64, ptr %5, align 8
  ret i64 %6
}

; Function Attrs: mustprogress uwtable
define noundef zeroext i1 @_ZN24InterfaceToolbarLineEdit7isValidEv(ptr noundef nonnull align 8 dereferenceable(58) %0) #0 align 2 personality ptr @__gxx_personality_v0 {
  %2 = alloca ptr, align 8
  %3 = alloca i8, align 1
  %4 = alloca %class.QString, align 8
  %5 = alloca i1, align 1
  %6 = alloca ptr, align 8
  %7 = alloca i32, align 4
  %8 = alloca %class.QString, align 8
  %9 = alloca %class.QString, align 8
  %10 = alloca i1, align 1
  %11 = alloca %class.QRegularExpressionMatch, align 8
  %12 = alloca %class.QString, align 8
  %13 = alloca i1, align 1
  %14 = alloca %class.QFlags.1, align 4
  %15 = alloca i1, align 1
  store ptr %0, ptr %2, align 8
  %16 = load ptr, ptr %2, align 8
  store i8 1, ptr %3, align 1
  %17 = getelementptr inbounds %class.InterfaceToolbarLineEdit, ptr %16, i32 0, i32 3
  %18 = load i8, ptr %17, align 8
  %19 = trunc i8 %18 to i1
  store i1 false, ptr %5, align 1
  br i1 %19, label %20, label %24

20:                                               ; preds = %1
  call void @_ZNK9QLineEdit4textEv(ptr dead_on_unwind writable sret(%class.QString) align 8 %4, ptr noundef nonnull align 8 dereferenceable(40) %16)
  store i1 true, ptr %5, align 1
  %21 = invoke noundef i64 @_ZNK7QString6lengthEv(ptr noundef nonnull align 8 dereferenceable(24) %4)
          to label %22 unwind label %30

22:                                               ; preds = %20
  %23 = icmp eq i64 %21, 0
  br label %24

24:                                               ; preds = %22, %1
  %25 = phi i1 [ false, %1 ], [ %23, %22 ]
  %26 = load i1, ptr %5, align 1
  br i1 %26, label %27, label %28

27:                                               ; preds = %24
  call void @_ZN7QStringD2Ev(ptr noundef nonnull align 8 dereferenceable(24) %4) #8
  br label %28

28:                                               ; preds = %27, %24
  br i1 %25, label %29, label %37

29:                                               ; preds = %28
  store i8 0, ptr %3, align 1
  br label %37

30:                                               ; preds = %20
  %31 = landingpad { ptr, i32 }
          cleanup
  %32 = extractvalue { ptr, i32 } %31, 0
  store ptr %32, ptr %6, align 8
  %33 = extractvalue { ptr, i32 } %31, 1
  store i32 %33, ptr %7, align 4
  %34 = load i1, ptr %5, align 1
  br i1 %34, label %35, label %36

35:                                               ; preds = %30
  call void @_ZN7QStringD2Ev(ptr noundef nonnull align 8 dereferenceable(24) %4) #8
  br label %36

36:                                               ; preds = %35, %30
  br label %102

37:                                               ; preds = %29, %28
  %38 = getelementptr inbounds %class.InterfaceToolbarLineEdit, ptr %16, i32 0, i32 2
  call void @_ZNK18QRegularExpression7patternEv(ptr dead_on_unwind writable sret(%class.QString) align 8 %8, ptr noundef nonnull align 8 dereferenceable(8) %38)
  store i1 false, ptr %10, align 1
  %39 = invoke noundef zeroext i1 @_ZNK7QString7isEmptyEv(ptr noundef nonnull align 8 dereferenceable(24) %8)
          to label %40 unwind label %71

40:                                               ; preds = %37
  br i1 %39, label %46, label %41

41:                                               ; preds = %40
  invoke void @_ZNK9QLineEdit4textEv(ptr dead_on_unwind writable sret(%class.QString) align 8 %9, ptr noundef nonnull align 8 dereferenceable(40) %16)
          to label %42 unwind label %71

42:                                               ; preds = %41
  store i1 true, ptr %10, align 1
  %43 = invoke noundef i64 @_ZNK7QString6lengthEv(ptr noundef nonnull align 8 dereferenceable(24) %9)
          to label %44 unwind label %75

44:                                               ; preds = %42
  %45 = icmp sgt i64 %43, 0
  br label %46

46:                                               ; preds = %44, %40
  %47 = phi i1 [ false, %40 ], [ %45, %44 ]
  %48 = load i1, ptr %10, align 1
  br i1 %48, label %49, label %50

49:                                               ; preds = %46
  call void @_ZN7QStringD2Ev(ptr noundef nonnull align 8 dereferenceable(24) %9) #8
  br label %50

50:                                               ; preds = %49, %46
  call void @_ZN7QStringD2Ev(ptr noundef nonnull align 8 dereferenceable(24) %8) #8
  br i1 %47, label %51, label %99

51:                                               ; preds = %50
  %52 = getelementptr inbounds %class.InterfaceToolbarLineEdit, ptr %16, i32 0, i32 2
  %53 = call noundef zeroext i1 @_ZNK18QRegularExpression7isValidEv(ptr noundef nonnull align 8 dereferenceable(8) %52)
  store i1 false, ptr %13, align 1
  store i1 false, ptr %15, align 1
  br i1 %53, label %54, label %62

54:                                               ; preds = %51
  %55 = getelementptr inbounds %class.InterfaceToolbarLineEdit, ptr %16, i32 0, i32 2
  call void @_ZNK9QLineEdit4textEv(ptr dead_on_unwind writable sret(%class.QString) align 8 %12, ptr noundef nonnull align 8 dereferenceable(40) %16)
  store i1 true, ptr %13, align 1
  call void @_ZN6QFlagsIN18QRegularExpression11MatchOptionEEC2ES1_(ptr noundef nonnull align 4 dereferenceable(4) %14, i32 noundef 0) #8
  %56 = getelementptr inbounds %class.QFlags.1, ptr %14, i32 0, i32 0
  %57 = load i32, ptr %56, align 4
  invoke void @_ZNK18QRegularExpression5matchERK7QStringxNS_9MatchTypeE6QFlagsINS_11MatchOptionEE(ptr dead_on_unwind writable sret(%class.QRegularExpressionMatch) align 8 %11, ptr noundef nonnull align 8 dereferenceable(8) %55, ptr noundef nonnull align 8 dereferenceable(24) %12, i64 noundef 0, i32 noundef 0, i32 %57)
          to label %58 unwind label %83

58:                                               ; preds = %54
  store i1 true, ptr %15, align 1
  %59 = invoke noundef zeroext i1 @_ZNK23QRegularExpressionMatch8hasMatchEv(ptr noundef nonnull align 8 dereferenceable(8) %11)
          to label %60 unwind label %87

60:                                               ; preds = %58
  %61 = xor i1 %59, true
  br label %62

62:                                               ; preds = %60, %51
  %63 = phi i1 [ true, %51 ], [ %61, %60 ]
  %64 = load i1, ptr %15, align 1
  br i1 %64, label %65, label %66

65:                                               ; preds = %62
  call void @_ZN23QRegularExpressionMatchD1Ev(ptr noundef nonnull align 8 dereferenceable(8) %11) #8
  br label %66

66:                                               ; preds = %65, %62
  %67 = load i1, ptr %13, align 1
  br i1 %67, label %68, label %69

68:                                               ; preds = %66
  call void @_ZN7QStringD2Ev(ptr noundef nonnull align 8 dereferenceable(24) %12) #8
  br label %69

69:                                               ; preds = %68, %66
  br i1 %63, label %70, label %98

70:                                               ; preds = %69
  store i8 0, ptr %3, align 1
  br label %98

71:                                               ; preds = %41, %37
  %72 = landingpad { ptr, i32 }
          cleanup
  %73 = extractvalue { ptr, i32 } %72, 0
  store ptr %73, ptr %6, align 8
  %74 = extractvalue { ptr, i32 } %72, 1
  store i32 %74, ptr %7, align 4
  br label %82

75:                                               ; preds = %42
  %76 = landingpad { ptr, i32 }
          cleanup
  %77 = extractvalue { ptr, i32 } %76, 0
  store ptr %77, ptr %6, align 8
  %78 = extractvalue { ptr, i32 } %76, 1
  store i32 %78, ptr %7, align 4
  %79 = load i1, ptr %10, align 1
  br i1 %79, label %80, label %81

80:                                               ; preds = %75
  call void @_ZN7QStringD2Ev(ptr noundef nonnull align 8 dereferenceable(24) %9) #8
  br label %81

81:                                               ; preds = %80, %75
  br label %82

82:                                               ; preds = %81, %71
  call void @_ZN7QStringD2Ev(ptr noundef nonnull align 8 dereferenceable(24) %8) #8
  br label %102

83:                                               ; preds = %54
  %84 = landingpad { ptr, i32 }
          cleanup
  %85 = extractvalue { ptr, i32 } %84, 0
  store ptr %85, ptr %6, align 8
  %86 = extractvalue { ptr, i32 } %84, 1
  store i32 %86, ptr %7, align 4
  br label %94

87:                                               ; preds = %58
  %88 = landingpad { ptr, i32 }
          cleanup
  %89 = extractvalue { ptr, i32 } %88, 0
  store ptr %89, ptr %6, align 8
  %90 = extractvalue { ptr, i32 } %88, 1
  store i32 %90, ptr %7, align 4
  %91 = load i1, ptr %15, align 1
  br i1 %91, label %92, label %93

92:                                               ; preds = %87
  call void @_ZN23QRegularExpressionMatchD1Ev(ptr noundef nonnull align 8 dereferenceable(8) %11) #8
  br label %93

93:                                               ; preds = %92, %87
  br label %94

94:                                               ; preds = %93, %83
  %95 = load i1, ptr %13, align 1
  br i1 %95, label %96, label %97

96:                                               ; preds = %94
  call void @_ZN7QStringD2Ev(ptr noundef nonnull align 8 dereferenceable(24) %12) #8
  br label %97

97:                                               ; preds = %96, %94
  br label %102

98:                                               ; preds = %70, %69
  br label %99

99:                                               ; preds = %98, %50
  %100 = load i8, ptr %3, align 1
  %101 = trunc i8 %100 to i1
  ret i1 %101

102:                                              ; preds = %97, %82, %36
  %103 = load ptr, ptr %6, align 8
  %104 = load i32, ptr %7, align 4
  %105 = insertvalue { ptr, i32 } poison, ptr %103, 0
  %106 = insertvalue { ptr, i32 } %105, i32 %104, 1
  resume { ptr, i32 } %106
}