; Function Attrs: mustprogress uwtable
define noundef zeroext i1 @_ZN24InterfaceToolbarLineEdit7isValidEv(ptr noundef nonnull align 8 dereferenceable(58) %0) local_unnamed_addr #0 align 2 personality ptr @__gxx_personality_v0 {
  %2 = alloca %class.QString, align 8
  %3 = alloca %class.QString, align 8
  %4 = alloca %class.QString, align 8
  %5 = alloca %class.QRegularExpressionMatch, align 8
  %6 = alloca %class.QString, align 8
  %7 = getelementptr inbounds i8, ptr %0, i64 56
  %8 = load i8, ptr %7, align 8
  %9 = and i8 %8, 1
  %.not.not = icmp eq i8 %9, 0
  br i1 %.not.not, label %_ZN7QStringD2Ev.exit.thread, label %10

10:                                               ; preds = %1
  call void @_ZNK9QLineEdit4textEv(ptr dead_on_unwind nonnull writable sret(%class.QString) align 8 %2, ptr noundef nonnull align 8 dereferenceable(40) %0)
  %11 = getelementptr inbounds i8, ptr %2, i64 16
  %12 = load i64, ptr %11, align 8
  %.fr = freeze i64 %12
  %13 = icmp eq i64 %.fr, 0
  %14 = load ptr, ptr %2, align 8
  %.not.i.i.i = icmp eq ptr %14, null
  br i1 %.not.i.i.i, label %_ZN7QStringD2Ev.exit, label %_ZN17QArrayDataPointerIDsE5derefEv.exit.i.i

_ZN17QArrayDataPointerIDsE5derefEv.exit.i.i:      ; preds = %10
  %15 = atomicrmw sub ptr %14, i32 1 seq_cst, align 4
  %.not.i.i = icmp eq i32 %15, 1
  br i1 %.not.i.i, label %16, label %_ZN7QStringD2Ev.exit

16:                                               ; preds = %_ZN17QArrayDataPointerIDsE5derefEv.exit.i.i
  %17 = load ptr, ptr %2, align 8
  call void @_ZN10QArrayData10deallocateEPS_xx(ptr noundef %17, i64 noundef 2, i64 noundef 8) #8
  br i1 %13, label %18, label %_ZN7QStringD2Ev.exit.thread

_ZN7QStringD2Ev.exit:                             ; preds = %_ZN17QArrayDataPointerIDsE5derefEv.exit.i.i, %10
  br i1 %13, label %18, label %_ZN7QStringD2Ev.exit.thread

18:                                               ; preds = %16, %_ZN7QStringD2Ev.exit
  br label %_ZN7QStringD2Ev.exit.thread

_ZN7QStringD2Ev.exit.thread:                      ; preds = %1, %16, %_ZN7QStringD2Ev.exit, %18
  %19 = phi i8 [ 0, %18 ], [ 1, %_ZN7QStringD2Ev.exit ], [ 1, %16 ], [ 1, %1 ]
  %20 = getelementptr inbounds i8, ptr %0, i64 48
  call void @_ZNK18QRegularExpression7patternEv(ptr dead_on_unwind nonnull writable sret(%class.QString) align 8 %3, ptr noundef nonnull align 8 dereferenceable(8) %20)
  %21 = getelementptr inbounds i8, ptr %3, i64 16
  %22 = load i64, ptr %21, align 8
  %23 = icmp eq i64 %22, 0
  br i1 %23, label %_ZN7QStringD2Ev.exit23, label %24

24:                                               ; preds = %_ZN7QStringD2Ev.exit.thread
  invoke void @_ZNK9QLineEdit4textEv(ptr dead_on_unwind nonnull writable sret(%class.QString) align 8 %4, ptr noundef nonnull align 8 dereferenceable(40) %0)
          to label %25 unwind label %48

25:                                               ; preds = %24
  %26 = getelementptr inbounds i8, ptr %4, i64 16
  %27 = load i64, ptr %26, align 8
  %28 = icmp sgt i64 %27, 0
  %29 = load ptr, ptr %4, align 8
  %.not.i.i.i20 = icmp eq ptr %29, null
  br i1 %.not.i.i.i20, label %_ZN7QStringD2Ev.exit23, label %_ZN17QArrayDataPointerIDsE5derefEv.exit.i.i21

_ZN17QArrayDataPointerIDsE5derefEv.exit.i.i21:    ; preds = %25
  %30 = atomicrmw sub ptr %29, i32 1 seq_cst, align 4
  %.not.i.i22 = icmp eq i32 %30, 1
  br i1 %.not.i.i22, label %31, label %_ZN7QStringD2Ev.exit23

31:                                               ; preds = %_ZN17QArrayDataPointerIDsE5derefEv.exit.i.i21
  %32 = load ptr, ptr %4, align 8
  call void @_ZN10QArrayData10deallocateEPS_xx(ptr noundef %32, i64 noundef 2, i64 noundef 8) #8
  br label %_ZN7QStringD2Ev.exit23

_ZN7QStringD2Ev.exit23:                           ; preds = %_ZN7QStringD2Ev.exit.thread, %31, %_ZN17QArrayDataPointerIDsE5derefEv.exit.i.i21, %25
  %33 = phi i1 [ %28, %25 ], [ %28, %_ZN17QArrayDataPointerIDsE5derefEv.exit.i.i21 ], [ %28, %31 ], [ false, %_ZN7QStringD2Ev.exit.thread ]
  %34 = load ptr, ptr %3, align 8
  %.not.i.i.i24 = icmp eq ptr %34, null
  br i1 %.not.i.i.i24, label %_ZN7QStringD2Ev.exit27, label %_ZN17QArrayDataPointerIDsE5derefEv.exit.i.i25

_ZN17QArrayDataPointerIDsE5derefEv.exit.i.i25:    ; preds = %_ZN7QStringD2Ev.exit23
  %35 = atomicrmw sub ptr %34, i32 1 seq_cst, align 4
  %.not.i.i26 = icmp eq i32 %35, 1
  br i1 %.not.i.i26, label %36, label %_ZN7QStringD2Ev.exit27

36:                                               ; preds = %_ZN17QArrayDataPointerIDsE5derefEv.exit.i.i25
  %37 = load ptr, ptr %3, align 8
  call void @_ZN10QArrayData10deallocateEPS_xx(ptr noundef %37, i64 noundef 2, i64 noundef 8) #8
  br label %_ZN7QStringD2Ev.exit27

_ZN7QStringD2Ev.exit27:                           ; preds = %_ZN7QStringD2Ev.exit23, %_ZN17QArrayDataPointerIDsE5derefEv.exit.i.i25, %36
  br i1 %33, label %38, label %59

38:                                               ; preds = %_ZN7QStringD2Ev.exit27
  %39 = call noundef zeroext i1 @_ZNK18QRegularExpression7isValidEv(ptr noundef nonnull align 8 dereferenceable(8) %20)
  br i1 %39, label %40, label %.critedge.thread

40:                                               ; preds = %38
  call void @_ZNK9QLineEdit4textEv(ptr dead_on_unwind nonnull writable sret(%class.QString) align 8 %6, ptr noundef nonnull align 8 dereferenceable(40) %0)
  invoke void @_ZNK18QRegularExpression5matchERK7QStringxNS_9MatchTypeE6QFlagsINS_11MatchOptionEE(ptr dead_on_unwind nonnull writable sret(%class.QRegularExpressionMatch) align 8 %5, ptr noundef nonnull align 8 dereferenceable(8) %20, ptr noundef nonnull align 8 dereferenceable(24) %6, i64 noundef 0, i32 noundef 0, i32 0)
          to label %41 unwind label %52

41:                                               ; preds = %40
  %42 = invoke noundef zeroext i1 @_ZNK23QRegularExpressionMatch8hasMatchEv(ptr noundef nonnull align 8 dereferenceable(8) %5)
          to label %43 unwind label %54

43:                                               ; preds = %41
  call void @_ZN23QRegularExpressionMatchD1Ev(ptr noundef nonnull align 8 dereferenceable(8) %5) #8
  %44 = load ptr, ptr %6, align 8
  %.not.i.i.i28 = icmp eq ptr %44, null
  br i1 %.not.i.i.i28, label %.critedge, label %_ZN17QArrayDataPointerIDsE5derefEv.exit.i.i29

_ZN17QArrayDataPointerIDsE5derefEv.exit.i.i29:    ; preds = %43
  %45 = atomicrmw sub ptr %44, i32 1 seq_cst, align 4
  %.not.i.i30 = icmp eq i32 %45, 1
  br i1 %.not.i.i30, label %46, label %.critedge

46:                                               ; preds = %_ZN17QArrayDataPointerIDsE5derefEv.exit.i.i29
  %47 = load ptr, ptr %6, align 8
  call void @_ZN10QArrayData10deallocateEPS_xx(ptr noundef %47, i64 noundef 2, i64 noundef 8) #8
  br i1 %42, label %59, label %.critedge.thread

.critedge:                                        ; preds = %_ZN17QArrayDataPointerIDsE5derefEv.exit.i.i29, %43
  br i1 %42, label %59, label %.critedge.thread

.critedge.thread:                                 ; preds = %38, %46, %.critedge
  br label %59

48:                                               ; preds = %24
  %49 = landingpad { ptr, i32 }
          cleanup
  %50 = load ptr, ptr %3, align 8
  %.not.i.i.i32 = icmp eq ptr %50, null
  br i1 %.not.i.i.i32, label %_ZN7QStringD2Ev.exit35, label %_ZN17QArrayDataPointerIDsE5derefEv.exit.i.i33

_ZN17QArrayDataPointerIDsE5derefEv.exit.i.i33:    ; preds = %48
  %51 = atomicrmw sub ptr %50, i32 1 seq_cst, align 4
  %.not.i.i34 = icmp eq i32 %51, 1
  br i1 %.not.i.i34, label %_ZN7QStringD2Ev.exit35.sink.split, label %_ZN7QStringD2Ev.exit35

52:                                               ; preds = %40
  %53 = landingpad { ptr, i32 }
          cleanup
  br label %56

54:                                               ; preds = %41
  %55 = landingpad { ptr, i32 }
          cleanup
  call void @_ZN23QRegularExpressionMatchD1Ev(ptr noundef nonnull align 8 dereferenceable(8) %5) #8
  br label %56

56:                                               ; preds = %52, %54
  %.pn = phi { ptr, i32 } [ %55, %54 ], [ %53, %52 ]
  %57 = load ptr, ptr %6, align 8
  %.not.i.i.i36 = icmp eq ptr %57, null
  br i1 %.not.i.i.i36, label %_ZN7QStringD2Ev.exit35, label %_ZN17QArrayDataPointerIDsE5derefEv.exit.i.i37

_ZN17QArrayDataPointerIDsE5derefEv.exit.i.i37:    ; preds = %56
  %58 = atomicrmw sub ptr %57, i32 1 seq_cst, align 4
  %.not.i.i38 = icmp eq i32 %58, 1
  br i1 %.not.i.i38, label %_ZN7QStringD2Ev.exit35.sink.split, label %_ZN7QStringD2Ev.exit35

59:                                               ; preds = %.critedge.thread, %.critedge, %46, %_ZN7QStringD2Ev.exit27
  %.116 = phi i8 [ %19, %_ZN7QStringD2Ev.exit27 ], [ 0, %.critedge.thread ], [ %19, %.critedge ], [ %19, %46 ]
  %60 = icmp ne i8 %.116, 0
  ret i1 %60

_ZN7QStringD2Ev.exit35.sink.split:                ; preds = %_ZN17QArrayDataPointerIDsE5derefEv.exit.i.i37, %_ZN17QArrayDataPointerIDsE5derefEv.exit.i.i33
  %.sink.in = phi ptr [ %3, %_ZN17QArrayDataPointerIDsE5derefEv.exit.i.i33 ], [ %6, %_ZN17QArrayDataPointerIDsE5derefEv.exit.i.i37 ]
  %.pn.pn.ph = phi { ptr, i32 } [ %49, %_ZN17QArrayDataPointerIDsE5derefEv.exit.i.i33 ], [ %.pn, %_ZN17QArrayDataPointerIDsE5derefEv.exit.i.i37 ]
  %.sink = load ptr, ptr %.sink.in, align 8
  call void @_ZN10QArrayData10deallocateEPS_xx(ptr noundef %.sink, i64 noundef 2, i64 noundef 8) #8
  br label %_ZN7QStringD2Ev.exit35

_ZN7QStringD2Ev.exit35:                           ; preds = %_ZN7QStringD2Ev.exit35.sink.split, %_ZN17QArrayDataPointerIDsE5derefEv.exit.i.i37, %56, %_ZN17QArrayDataPointerIDsE5derefEv.exit.i.i33, %48
  %.pn.pn = phi { ptr, i32 } [ %49, %48 ], [ %49, %_ZN17QArrayDataPointerIDsE5derefEv.exit.i.i33 ], [ %.pn, %56 ], [ %.pn, %_ZN17QArrayDataPointerIDsE5derefEv.exit.i.i37 ], [ %.pn.pn.ph, %_ZN7QStringD2Ev.exit35.sink.split ]
  resume { ptr, i32 } %.pn.pn
}